target datalayout = "e-m:e-p270:32:32-p271:32:32-p272:64:64-i64:64-i128:128-f80:128-n8:16:32:64-S128"
target triple = "x86_64-pc-linux-gnu"

@.str = private unnamed_addr constant [9 x i8] c"_LOADLIB\00", align 1
@.str.22 = private unnamed_addr constant [14 x i8] c"path too long\00", align 1
@.str.23 = private unnamed_addr constant [11 x i8] c"luaopen_%s\00", align 1
@.str.24 = private unnamed_addr constant [13 x i8] c"luaJIT_BC_%s\00", align 1
@.str.25 = private unnamed_addr constant [12 x i8] c"LOADLIB: %s\00", align 1
@.str.26 = private unnamed_addr constant [2 x i8] c"-\00", align 1
@.str.27 = private unnamed_addr constant [2 x i8] c".\00", align 1
@.str.28 = private unnamed_addr constant [2 x i8] c"_\00", align 1

; Function Attrs: nounwind uwtable
define internal ptr @ll_bcsym(ptr noundef %0, ptr noundef %1) #0 {
  %3 = alloca ptr, align 8
  %4 = alloca ptr, align 8
  store ptr %0, ptr %3, align 8, !tbaa !11
  store ptr %1, ptr %4, align 8, !tbaa !14
  %5 = load ptr, ptr %3, align 8, !tbaa !11
  %6 = load ptr, ptr %4, align 8, !tbaa !14
  %7 = call ptr @dlsym(ptr noundef %5, ptr noundef %6) #5
  ret ptr %7
}

; Function Attrs: nounwind uwtable
define internal ptr @ll_sym(ptr noundef %0, ptr noundef %1, ptr noundef %2) #0 {
  %4 = alloca ptr, align 8
  %5 = alloca ptr, align 8
  %6 = alloca ptr, align 8
  %7 = alloca ptr, align 8
  store ptr %0, ptr %4, align 8, !tbaa !4
  store ptr %1, ptr %5, align 8, !tbaa !11
  store ptr %2, ptr %6, align 8, !tbaa !14
  call void @llvm.lifetime.start.p0(i64 8, ptr %7) #5
  %8 = load ptr, ptr %5, align 8, !tbaa !11
  %9 = load ptr, ptr %6, align 8, !tbaa !14
  %10 = call ptr @dlsym(ptr noundef %8, ptr noundef %9) #5
  store ptr %10, ptr %7, align 8, !tbaa !11
  %11 = load ptr, ptr %7, align 8, !tbaa !11
  %12 = icmp eq ptr %11, null
  br i1 %12, label %13, label %16

13:                                               ; preds = %3
  %14 = load ptr, ptr %4, align 8, !tbaa !4
  %15 = call ptr @dlerror() #5
  call void @lua_pushstring(ptr noundef %14, ptr noundef %15)
  br label %16

16:                                               ; preds = %13, %3
  %17 = load ptr, ptr %7, align 8, !tbaa !11
  call void @llvm.lifetime.end.p0(i64 8, ptr %7) #5
  ret ptr %17
}

; Function Attrs: nounwind uwtable
define internal ptr @mksymname(ptr noundef %0, ptr noundef %1, ptr noundef %2) #0 {
  %4 = alloca ptr, align 8
  %5 = alloca ptr, align 8
  %6 = alloca ptr, align 8
  %7 = alloca ptr, align 8
  %8 = alloca ptr, align 8
  store ptr %0, ptr %4, align 8, !tbaa !4
  store ptr %1, ptr %5, align 8, !tbaa !14
  store ptr %2, ptr %6, align 8, !tbaa !14
  call void @llvm.lifetime.start.p0(i64 8, ptr %7) #5
  call void @llvm.lifetime.start.p0(i64 8, ptr %8) #5
  %9 = load ptr, ptr %5, align 8, !tbaa !14
  %10 = load i8, ptr @.str.26, align 1, !tbaa !16
  %11 = sext i8 %10 to i32
  %12 = call ptr @strchr(ptr noundef %9, i32 noundef %11) #6
  store ptr %12, ptr %8, align 8, !tbaa !14
  %13 = load ptr, ptr %8, align 8, !tbaa !14
  %14 = icmp ne ptr %13, null
  br i1 %14, label %15, label %18

15:                                               ; preds = %3
  %16 = load ptr, ptr %8, align 8, !tbaa !14
  %17 = getelementptr inbounds i8, ptr %16, i64 1
  store ptr %17, ptr %5, align 8, !tbaa !14
  br label %18

18:                                               ; preds = %15, %3
  %19 = load ptr, ptr %4, align 8, !tbaa !4
  %20 = load ptr, ptr %5, align 8, !tbaa !14
  %21 = call ptr @luaL_gsub(ptr noundef %19, ptr noundef %20, ptr noundef @.str.27, ptr noundef @.str.28)
  store ptr %21, ptr %7, align 8, !tbaa !14
  %22 = load ptr, ptr %4, align 8, !tbaa !4
  %23 = load ptr, ptr %6, align 8, !tbaa !14
  %24 = load ptr, ptr %7, align 8, !tbaa !14
  %25 = call ptr (ptr, ptr, ...) @lua_pushfstring(ptr noundef %22, ptr noundef %23, ptr noundef %24)
  store ptr %25, ptr %7, align 8, !tbaa !14
  %26 = load ptr, ptr %4, align 8, !tbaa !4
  call void @lua_remove(ptr noundef %26, i32 noundef -2)
  %27 = load ptr, ptr %7, align 8, !tbaa !14
  call void @llvm.lifetime.end.p0(i64 8, ptr %8) #5
  call void @llvm.lifetime.end.p0(i64 8, ptr %7) #5
  ret ptr %27
}

; Function Attrs: nounwind uwtable
define internal ptr @ll_load(ptr noundef %0, ptr noundef %1, i32 noundef %2) #0 {
  %4 = alloca ptr, align 8
  %5 = alloca ptr, align 8
  %6 = alloca i32, align 4
  %7 = alloca ptr, align 8
  store ptr %0, ptr %4, align 8, !tbaa !4
  store ptr %1, ptr %5, align 8, !tbaa !14
  store i32 %2, ptr %6, align 4, !tbaa !9
  call void @llvm.lifetime.start.p0(i64 8, ptr %7) #5
  %8 = load ptr, ptr %5, align 8, !tbaa !14
  %9 = load i32, ptr %6, align 4, !tbaa !9
  %10 = icmp ne i32 %9, 0
  %11 = select i1 %10, i32 256, i32 0
  %12 = or i32 2, %11
  %13 = call ptr @dlopen(ptr noundef %8, i32 noundef %12) #5
  store ptr %13, ptr %7, align 8, !tbaa !11
  %14 = load ptr, ptr %7, align 8, !tbaa !11
  %15 = icmp eq ptr %14, null
  br i1 %15, label %16, label %19

16:                                               ; preds = %3
  %17 = load ptr, ptr %4, align 8, !tbaa !4
  %18 = call ptr @dlerror() #5
  call void @lua_pushstring(ptr noundef %17, ptr noundef %18)
  br label %19

19:                                               ; preds = %16, %3
  %20 = load ptr, ptr %7, align 8, !tbaa !11
  call void @llvm.lifetime.end.p0(i64 8, ptr %7) #5
  ret ptr %20
}

; Function Attrs: nounwind uwtable
define internal ptr @ll_register(ptr noundef %0, ptr noundef %1) #0 {
  %3 = alloca ptr, align 8
  %4 = alloca ptr, align 8
  %5 = alloca ptr, align 8
  store ptr %0, ptr %3, align 8, !tbaa !4
  store ptr %1, ptr %4, align 8, !tbaa !14
  call void @llvm.lifetime.start.p0(i64 8, ptr %5) #5
  %6 = load ptr, ptr %3, align 8, !tbaa !4
  %7 = load ptr, ptr %4, align 8, !tbaa !14
  %8 = call ptr (ptr, ptr, ...) @lua_pushfstring(ptr noundef %6, ptr noundef @.str.25, ptr noundef %7)
  %9 = load ptr, ptr %3, align 8, !tbaa !4
  call void @lua_gettable(ptr noundef %9, i32 noundef -10000)
  %10 = load ptr, ptr %3, align 8, !tbaa !4
  %11 = call i32 @lua_type(ptr noundef %10, i32 noundef -1)
  %12 = icmp eq i32 %11, 0
  br i1 %12, label %16, label %13

13:                                               ; preds = %2
  %14 = load ptr, ptr %3, align 8, !tbaa !4
  %15 = call ptr @lua_touserdata(ptr noundef %14, i32 noundef -1)
  store ptr %15, ptr %5, align 8, !tbaa !11
  br label %27

16:                                               ; preds = %2
  %17 = load ptr, ptr %3, align 8, !tbaa !4
  call void @lua_settop(ptr noundef %17, i32 noundef -2)
  %18 = load ptr, ptr %3, align 8, !tbaa !4
  %19 = call ptr @lua_newuserdata(ptr noundef %18, i64 noundef 8)
  store ptr %19, ptr %5, align 8, !tbaa !11
  %20 = load ptr, ptr %5, align 8, !tbaa !11
  store ptr null, ptr %20, align 8, !tbaa !11
  %21 = load ptr, ptr %3, align 8, !tbaa !4
  call void @luaL_setmetatable(ptr noundef %21, ptr noundef @.str)
  %22 = load ptr, ptr %3, align 8, !tbaa !4
  %23 = load ptr, ptr %4, align 8, !tbaa !14
  %24 = call ptr (ptr, ptr, ...) @lua_pushfstring(ptr noundef %22, ptr noundef @.str.25, ptr noundef %23)
  %25 = load ptr, ptr %3, align 8, !tbaa !4
  call void @lua_pushvalue(ptr noundef %25, i32 noundef -2)
  %26 = load ptr, ptr %3, align 8, !tbaa !4
  call void @lua_settable(ptr noundef %26, i32 noundef -10000)
  br label %27

27:                                               ; preds = %16, %13
  %28 = load ptr, ptr %5, align 8, !tbaa !11
  call void @llvm.lifetime.end.p0(i64 8, ptr %5) #5
  ret ptr %28
}

; Function Attrs: nounwind uwtable
define internal i32 @ll_loadfunc(ptr noundef %0, ptr noundef %1, ptr noundef %2, i32 noundef %3) #0 {
  %5 = alloca i32, align 4
  %6 = alloca ptr, align 8
  %7 = alloca ptr, align 8
  %8 = alloca ptr, align 8
  %9 = alloca i32, align 4
  %10 = alloca ptr, align 8
  %11 = alloca i32, align 4
  %12 = alloca ptr, align 8
  %13 = alloca ptr, align 8
  %14 = alloca ptr, align 8
  store ptr %0, ptr %6, align 8, !tbaa !4
  store ptr %1, ptr %7, align 8, !tbaa !14
  store ptr %2, ptr %8, align 8, !tbaa !14
  store i32 %3, ptr %9, align 4, !tbaa !9
  call void @llvm.lifetime.start.p0(i64 8, ptr %10) #5
  %15 = load ptr, ptr %7, align 8, !tbaa !14
  %16 = call i64 @strlen(ptr noundef %15) #6
  %17 = icmp uge i64 %16, 4096
  br i1 %17, label %18, label %20

18:                                               ; preds = %4
  %19 = load ptr, ptr %6, align 8, !tbaa !4
  call void @lua_pushlstring(ptr noundef %19, ptr noundef @.str.22, i64 noundef 13)
  store i32 1, ptr %5, align 4
  store i32 1, ptr %11, align 4
  br label %97

20:                                               ; preds = %4
  %21 = load ptr, ptr %6, align 8, !tbaa !4
  %22 = load ptr, ptr %7, align 8, !tbaa !14
  %23 = call ptr @ll_register(ptr noundef %21, ptr noundef %22)
  store ptr %23, ptr %10, align 8, !tbaa !11
  %24 = load ptr, ptr %10, align 8, !tbaa !11
  %25 = load ptr, ptr %24, align 8, !tbaa !11
  %26 = icmp eq ptr %25, null
  br i1 %26, label %27, label %37

27:                                               ; preds = %20
  %28 = load ptr, ptr %6, align 8, !tbaa !4
  %29 = load ptr, ptr %7, align 8, !tbaa !14
  %30 = load ptr, ptr %8, align 8, !tbaa !14
  %31 = load i8, ptr %30, align 1, !tbaa !16
  %32 = sext i8 %31 to i32
  %33 = icmp eq i32 %32, 42
  %34 = zext i1 %33 to i32
  %35 = call ptr @ll_load(ptr noundef %28, ptr noundef %29, i32 noundef %34)
  %36 = load ptr, ptr %10, align 8, !tbaa !11
  store ptr %35, ptr %36, align 8, !tbaa !11
  br label %37

37:                                               ; preds = %27, %20
  %38 = load ptr, ptr %10, align 8, !tbaa !11
  %39 = load ptr, ptr %38, align 8, !tbaa !11
  %40 = icmp eq ptr %39, null
  br i1 %40, label %41, label %42

41:                                               ; preds = %37
  store i32 1, ptr %5, align 4
  store i32 1, ptr %11, align 4
  br label %97

42:                                               ; preds = %37
  %43 = load ptr, ptr %8, align 8, !tbaa !14
  %44 = load i8, ptr %43, align 1, !tbaa !16
  %45 = sext i8 %44 to i32
  %46 = icmp eq i32 %45, 42
  br i1 %46, label %47, label %49

47:                                               ; preds = %42
  %48 = load ptr, ptr %6, align 8, !tbaa !4
  call void @lua_pushboolean(ptr noundef %48, i32 noundef 1)
  store i32 0, ptr %5, align 4
  store i32 1, ptr %11, align 4
  br label %97

49:                                               ; preds = %42
  call void @llvm.lifetime.start.p0(i64 8, ptr %12) #5
  %50 = load i32, ptr %9, align 4, !tbaa !9
  %51 = icmp ne i32 %50, 0
  br i1 %51, label %52, label %54

52:                                               ; preds = %49
  %53 = load ptr, ptr %8, align 8, !tbaa !14
  br label %58

54:                                               ; preds = %49
  %55 = load ptr, ptr %6, align 8, !tbaa !4
  %56 = load ptr, ptr %8, align 8, !tbaa !14
  %57 = call ptr @mksymname(ptr noundef %55, ptr noundef %56, ptr noundef @.str.23)
  br label %58

58:                                               ; preds = %54, %52
  %59 = phi ptr [ %53, %52 ], [ %57, %54 ]
  store ptr %59, ptr %12, align 8, !tbaa !14
  call void @llvm.lifetime.start.p0(i64 8, ptr %13) #5
  %60 = load ptr, ptr %6, align 8, !tbaa !4
  %61 = load ptr, ptr %10, align 8, !tbaa !11
  %62 = load ptr, ptr %61, align 8, !tbaa !11
  %63 = load ptr, ptr %12, align 8, !tbaa !14
  %64 = call ptr @ll_sym(ptr noundef %60, ptr noundef %62, ptr noundef %63)
  store ptr %64, ptr %13, align 8, !tbaa !11
  %65 = load ptr, ptr %13, align 8, !tbaa !11
  %66 = icmp ne ptr %65, null
  br i1 %66, label %67, label %70

67:                                               ; preds = %58
  %68 = load ptr, ptr %6, align 8, !tbaa !4
  %69 = load ptr, ptr %13, align 8, !tbaa !11
  call void @lua_pushcclosure(ptr noundef %68, ptr noundef %69, i32 noundef 0)
  store i32 0, ptr %5, align 4
  store i32 1, ptr %11, align 4
  br label %96

70:                                               ; preds = %58
  %71 = load i32, ptr %9, align 4, !tbaa !9
  %72 = icmp ne i32 %71, 0
  br i1 %72, label %95, label %73

73:                                               ; preds = %70
  call void @llvm.lifetime.start.p0(i64 8, ptr %14) #5
  %74 = load ptr, ptr %10, align 8, !tbaa !11
  %75 = load ptr, ptr %74, align 8, !tbaa !11
  %76 = load ptr, ptr %6, align 8, !tbaa !4
  %77 = load ptr, ptr %8, align 8, !tbaa !14
  %78 = call ptr @mksymname(ptr noundef %76, ptr noundef %77, ptr noundef @.str.24)
  %79 = call ptr @ll_bcsym(ptr noundef %75, ptr noundef %78)
  store ptr %79, ptr %14, align 8, !tbaa !14
  %80 = load ptr, ptr %6, align 8, !tbaa !4
  call void @lua_settop(ptr noundef %80, i32 noundef -2)
  %81 = load ptr, ptr %14, align 8, !tbaa !14
  %82 = icmp ne ptr %81, null
  br i1 %82, label %83, label %91

83:                                               ; preds = %73
  %84 = load ptr, ptr %6, align 8, !tbaa !4
  %85 = load ptr, ptr %14, align 8, !tbaa !14
  %86 = load ptr, ptr %8, align 8, !tbaa !14
  %87 = call i32 @luaL_loadbuffer(ptr noundef %84, ptr noundef %85, i64 noundef -1, ptr noundef %86)
  %88 = icmp ne i32 %87, 0
  br i1 %88, label %89, label %90

89:                                               ; preds = %83
  store i32 3, ptr %5, align 4
  store i32 1, ptr %11, align 4
  br label %92

90:                                               ; preds = %83
  store i32 0, ptr %5, align 4
  store i32 1, ptr %11, align 4
  br label %92

91:                                               ; preds = %73
  store i32 0, ptr %11, align 4
  br label %92

92:                                               ; preds = %91, %90, %89
  call void @llvm.lifetime.end.p0(i64 8, ptr %14) #5
  %93 = load i32, ptr %11, align 4
  switch i32 %93, label %96 [
    i32 0, label %94
  ]

94:                                               ; preds = %92
  br label %95

95:                                               ; preds = %94, %70
  store i32 2, ptr %5, align 4
  store i32 1, ptr %11, align 4
  br label %96

96:                                               ; preds = %95, %92, %67
  call void @llvm.lifetime.end.p0(i64 8, ptr %13) #5
  call void @llvm.lifetime.end.p0(i64 8, ptr %12) #5
  br label %97

97:                                               ; preds = %96, %47, %41, %18
  call void @llvm.lifetime.end.p0(i64 8, ptr %10) #5
  %98 = load i32, ptr %5, align 4
  ret i32 %98
}