; Function Attrs: nounwind uwtable
define internal fastcc range(i32 0, 4) i32 @ll_loadfunc(ptr noundef %0, ptr noundef %1, ptr noundef %2, i32 noundef range(i32 0, 2) %3) unnamed_addr #0 {
  %5 = tail call i64 @strlen(ptr noundef nonnull dereferenceable(1) %1) #8
  %6 = icmp ugt i64 %5, 4095
  br i1 %6, label %7, label %8

7:                                                ; preds = %4
  tail call void @lua_pushlstring(ptr noundef %0, ptr noundef nonnull @.str.22, i64 noundef 13) #7
  br label %.thread42

8:                                                ; preds = %4
  %9 = tail call ptr (ptr, ptr, ...) @lua_pushfstring(ptr noundef %0, ptr noundef nonnull @.str.25, ptr noundef nonnull %1) #7
  tail call void @lua_gettable(ptr noundef %0, i32 noundef -10000) #7
  %10 = tail call i32 @lua_type(ptr noundef %0, i32 noundef -1) #7
  %11 = icmp eq i32 %10, 0
  br i1 %11, label %14, label %12

12:                                               ; preds = %8
  %13 = tail call ptr @lua_touserdata(ptr noundef %0, i32 noundef -1) #7
  br label %ll_register.exit

14:                                               ; preds = %8
  tail call void @lua_settop(ptr noundef %0, i32 noundef -2) #7
  %15 = tail call ptr @lua_newuserdata(ptr noundef %0, i64 noundef 8) #7
  store ptr null, ptr %15, align 8, !tbaa !4
  tail call void @luaL_setmetatable(ptr noundef %0, ptr noundef nonnull @.str) #7
  %16 = tail call ptr (ptr, ptr, ...) @lua_pushfstring(ptr noundef %0, ptr noundef nonnull @.str.25, ptr noundef nonnull %1) #7
  tail call void @lua_pushvalue(ptr noundef %0, i32 noundef -2) #7
  tail call void @lua_settable(ptr noundef %0, i32 noundef -10000) #7
  br label %ll_register.exit

ll_register.exit:                                 ; preds = %12, %14
  %.0.i = phi ptr [ %15, %14 ], [ %13, %12 ]
  %17 = load ptr, ptr %.0.i, align 8, !tbaa !4
  %18 = icmp eq ptr %17, null
  br i1 %18, label %19, label %.thread

19:                                               ; preds = %ll_register.exit
  %20 = load i8, ptr %2, align 1, !tbaa !10
  %.not44 = icmp eq i8 %20, 42
  %21 = select i1 %.not44, i32 258, i32 2
  %22 = tail call ptr @dlopen(ptr noundef nonnull %1, i32 noundef %21) #7
  %23 = icmp eq ptr %22, null
  br i1 %23, label %.thread41, label %25

.thread41:                                        ; preds = %19
  %24 = tail call ptr @dlerror() #7
  tail call void @lua_pushstring(ptr noundef %0, ptr noundef %24) #7
  store ptr null, ptr %.0.i, align 8, !tbaa !4
  br label %.thread42

25:                                               ; preds = %19
  store ptr %22, ptr %.0.i, align 8, !tbaa !4
  br label %.thread

.thread:                                          ; preds = %ll_register.exit, %25
  %26 = phi ptr [ %17, %ll_register.exit ], [ %22, %25 ]
  %27 = load i8, ptr %2, align 1, !tbaa !10
  %28 = icmp eq i8 %27, 42
  br i1 %28, label %29, label %30

29:                                               ; preds = %.thread
  tail call void @lua_pushboolean(ptr noundef %0, i32 noundef 1) #7
  br label %.thread42

30:                                               ; preds = %.thread
  %.not = icmp eq i32 %3, 0
  br i1 %.not, label %31, label %36

31:                                               ; preds = %30
  %32 = tail call ptr @strchr(ptr noundef nonnull dereferenceable(1) %2, i32 noundef 45) #8
  %.not.i38 = icmp eq ptr %32, null
  %33 = getelementptr inbounds nuw i8, ptr %32, i64 1
  %spec.select.i = select i1 %.not.i38, ptr %2, ptr %33
  %34 = tail call ptr @luaL_gsub(ptr noundef %0, ptr noundef nonnull %spec.select.i, ptr noundef nonnull @.str.27, ptr noundef nonnull @.str.28) #7
  %35 = tail call ptr (ptr, ptr, ...) @lua_pushfstring(ptr noundef %0, ptr noundef nonnull @.str.23, ptr noundef %34) #7
  tail call void @lua_remove(ptr noundef %0, i32 noundef -2) #7
  %.pre = load ptr, ptr %.0.i, align 8, !tbaa !4
  br label %36

36:                                               ; preds = %30, %31
  %37 = phi ptr [ %.pre, %31 ], [ %26, %30 ]
  %38 = phi ptr [ %35, %31 ], [ %2, %30 ]
  %39 = tail call ptr @dlsym(ptr noundef %37, ptr noundef %38) #7
  %40 = icmp eq ptr %39, null
  br i1 %40, label %41, label %ll_sym.exit

ll_sym.exit:                                      ; preds = %36
  tail call void @lua_pushcclosure(ptr noundef %0, ptr noundef nonnull %39, i32 noundef 0) #7
  br label %.thread42

41:                                               ; preds = %36
  %42 = tail call ptr @dlerror() #7
  tail call void @lua_pushstring(ptr noundef %0, ptr noundef %42) #7
  br i1 %.not, label %43, label %.thread42

43:                                               ; preds = %41
  %44 = load ptr, ptr %.0.i, align 8, !tbaa !4
  %45 = tail call ptr @strchr(ptr noundef nonnull dereferenceable(1) %2, i32 noundef 45) #8
  %.not.i39 = icmp eq ptr %45, null
  %46 = getelementptr inbounds nuw i8, ptr %45, i64 1
  %spec.select.i40 = select i1 %.not.i39, ptr %2, ptr %46
  %47 = tail call ptr @luaL_gsub(ptr noundef %0, ptr noundef nonnull %spec.select.i40, ptr noundef nonnull @.str.27, ptr noundef nonnull @.str.28) #7
  %48 = tail call ptr (ptr, ptr, ...) @lua_pushfstring(ptr noundef %0, ptr noundef nonnull @.str.24, ptr noundef %47) #7
  tail call void @lua_remove(ptr noundef %0, i32 noundef -2) #7
  %49 = tail call ptr @dlsym(ptr noundef %44, ptr noundef %48) #7
  tail call void @lua_settop(ptr noundef %0, i32 noundef -2) #7
  %.not36 = icmp eq ptr %49, null
  br i1 %.not36, label %.thread42, label %50

50:                                               ; preds = %43
  %51 = tail call i32 @luaL_loadbuffer(ptr noundef %0, ptr noundef nonnull %49, i64 noundef -1, ptr noundef nonnull %2) #7
  %.not37 = icmp eq i32 %51, 0
  %. = select i1 %.not37, i32 0, i32 3
  br label %.thread42

.thread42:                                        ; preds = %43, %41, %50, %.thread41, %ll_sym.exit, %29, %7
  %.0 = phi i32 [ 1, %7 ], [ 0, %29 ], [ 0, %ll_sym.exit ], [ %., %50 ], [ 1, %.thread41 ], [ 2, %41 ], [ 2, %43 ]
  ret i32 %.0
}